; Function Attrs: mustprogress nofree norecurse nosync nounwind willreturn memory(read, inaccessiblemem: none) uwtable
define dso_local ptr @LLVMGetPreviousNamedMetadata(ptr noundef readonly %0) local_unnamed_addr #14 {
  %2 = getelementptr inbounds nuw i8, ptr %0, i64 48
  %3 = load ptr, ptr %2, align 8
  %4 = getelementptr inbounds nuw i8, ptr %3, i64 80
  %5 = load ptr, ptr %4, align 8
  %6 = icmp eq ptr %0, %5
  br i1 %6, label %9, label %7

7:                                                ; preds = %1
  %8 = load ptr, ptr %0, align 8
  br label %9

9:                                                ; preds = %1, %7
  %.0 = phi ptr [ %8, %7 ], [ null, %1 ]
  ret ptr %.0
}